; Function Attrs: nofree norecurse nosync nounwind memory(readwrite, inaccessiblemem: none) uwtable
define void @Abc_NtkDressMapSetPolarity(ptr noundef readonly captures(none) %0) local_unnamed_addr #3 {
  %2 = getelementptr inbounds nuw i8, ptr %0, i64 32
  %3 = load ptr, ptr %2, align 8
  %4 = getelementptr i8, ptr %3, i64 4
  %.val16 = load i32, ptr %4, align 4
  %5 = icmp sgt i32 %.val16, 0
  br i1 %5, label %.lr.ph, label %.critedge

.lr.ph:                                           ; preds = %1, %28
  %6 = phi ptr [ %29, %28 ], [ %3, %1 ]
  %indvars.iv = phi i64 [ %indvars.iv.next, %28 ], [ 0, %1 ]
  %7 = getelementptr i8, ptr %6, i64 8
  %.val13.val = load ptr, ptr %7, align 8
  %8 = getelementptr inbounds nuw ptr, ptr %.val13.val, i64 %indvars.iv
  %9 = load ptr, ptr %8, align 8
  %10 = icmp eq ptr %9, null
  br i1 %10, label %28, label %11

11:                                               ; preds = %.lr.ph
  %12 = getelementptr inbounds nuw i8, ptr %9, i64 64
  %13 = load ptr, ptr %12, align 8
  %14 = ptrtoint ptr %13 to i64
  %15 = and i64 %14, -2
  %.not = icmp eq i64 %15, 0
  br i1 %.not, label %28, label %16

16:                                               ; preds = %11
  %17 = inttoptr i64 %15 to ptr
  %18 = getelementptr i8, ptr %17, i64 20
  %.val14 = load i32, ptr %18, align 4
  %19 = and i32 %.val14, 15
  %.not12 = icmp eq i32 %19, 0
  br i1 %.not12, label %28, label %20

20:                                               ; preds = %16
  %21 = trunc i64 %14 to i32
  %22 = getelementptr inbounds nuw i8, ptr %9, i64 20
  %23 = load i32, ptr %22, align 4
  %24 = shl i32 %21, 7
  %.mask15 = xor i32 %.val14, %24
  %25 = and i32 %.mask15, 128
  %26 = and i32 %23, -129
  %27 = or disjoint i32 %26, %25
  store i32 %27, ptr %22, align 4
  %.pre = load ptr, ptr %2, align 8
  br label %28

28:                                               ; preds = %.lr.ph, %20, %16, %11
  %29 = phi ptr [ %6, %.lr.ph ], [ %.pre, %20 ], [ %6, %16 ], [ %6, %11 ]
  %indvars.iv.next = add nuw nsw i64 %indvars.iv, 1
  %30 = getelementptr i8, ptr %29, i64 4
  %.val = load i32, ptr %30, align 4
  %31 = sext i32 %.val to i64
  %32 = icmp slt i64 %indvars.iv.next, %31
  br i1 %32, label %.lr.ph, label %.critedge, !llvm.loop !10

.critedge:                                        ; preds = %28, %1
  ret void
}